Certificate:
    Data:
        Version: 1 (0x0)
        Serial Number:
            5b:90:ac:26:8a:28:4d:a5:b1:e0:b7:d9:49:0b:5b:05:0f:79:e2:3e
        Signature Algorithm: NULL
        Issuer: CN = localhost
        Validity
            Not Before: Oct  9 21:51:19 2021 GMT
            Not After : Oct  7 21:51:19 2031 GMT
        Subject: CN = localhost
        Subject Public Key Info:
            Public Key Algorithm: rsaEncryption
                RSA Public-Key: (2048 bit)
                Modulus:
                    00:be:f3:80:3c:2c:4f:6c:80:f2:5d:14:11:3f:b0:
                    f7:68:ce:cb:e3:86:f7:44:9e:36:b1:a2:c4:15:29:
                    bf:db:7e:ee:b4:b6:10:cb:e8:16:48:d7:0e:77:a0:
                    0e:38:a9:3a:b7:f4:ab:f8:38:38:f6:d1:d7:65:40:
                    79:8c:10:2f:01:ac:5a:40:b4:77:fc:bf:18:06:bf:
                    26:ce:9c:68:2f:45:c9:e9:6a:b3:0a:5c:3c:01:a1:
                    ae:1b:21:1f:c5:b9:6b:25:b0:c2:5c:53:1a:e4:69:
                    ef:4e:20:ac:e2:ab:ff:b6:c9:80:c9:bb:9e:3d:21:
                    b7:14:30:f8:17:39:8f:06:81:82:20:c1:c6:f6:0d:
                    52:0a:94:be:30:de:80:1e:b6:a7:c4:6e:29:7b:53:
                    29:47:6a:78:80:ba:5e:04:49:6f:2e:26:4b:04:be:
                    38:cf:cf:75:29:7c:c2:46:fa:55:96:51:7f:fe:98:
                    a6:04:dd:b0:06:27:25:43:cd:7a:c1:5b:17:ed:08:
                    fe:2a:54:e7:6d:29:f4:cf:aa:d1:1f:09:5a:28:1a:
                    d8:1e:61:86:7e:ea:0f:a1:45:01:5d:69:0d:01:60:
                    20:89:1d:cf:fa:b5:ca:72:3e:bb:aa:f3:52:b3:d1:
                    0c:88:0a:b1:8e:d8:7a:46:a6:7b:7c:b7:88:db:ee:
                    66:65
                Exponent: 65537 (0x10001)
    Signature Algorithm: NULL
-----BEGIN CERTIFICATE-----
MIIDCTCCAfGgAwIBAgIUW5CsJoooTaWx4LfZSQtbBQ954j4wDQYJKoZIhvcNAQEL
BQAwFDESMBAGA1UEAwwJbG9jYWxob3N0MB4XDTIxMTAwOTIxNTExOVoXDTMxMTAw
NzIxNTExOVowFDESMBAGA1UEAwwJbG9jYWxob3N0MIIBIjANBgkqhkiG9w0BAQEF
AAOCAQ8AMIIBCgKCAQEAvvOAPCxPbIDyXRQRP7D3aM7L44b3RJ42saLEFSm/237u
tLYQy+gWSNcOd6AOOKk6t/Sr+Dg49tHXZUB5jBAvAaxaQLR3/L8YBr8mzpxoL0XJ
6WqzClw8AaGuGyEfxblrJbDCXFMa5GnvTiCs4qv/tsmAybuePSG3FDD4FzmPBoGC
IMHG9g1SCpS+MN6AHranxG4pe1MpR2p4gLpeBElvLiZLBL44z891KXzCRvpVllF/
/pimBN2wBiclQ816wVsX7Qj+KlTnbSn0z6rRHwlaKBrYHmGGfuoPoUUBXWkNAWAg
iR3P+rXKcj67qvNSs9EMiAqxjth6RqZ7fLeI2+5mZQIDAQABo1MwUTAdBgNVHQ4E
FgQUeSVX0WMbZZbRzonf5JazXZbQbnowHwYDVR0jBBgwFoAUeSVX0WMbZZbRzonf
5JazXZbQbnowDwYDVR0TAQH/BAUwAwEB/zANBgkqhkiG9w0BAQsFAAOCAQEAq6rG
4PoLEShuj3DLWCBYxqOx/1S3LJGFJvaJG1+uP4b3hTP7ltIf3Vy34CrVpER3X2CP
CuQPbL6MjqyatpalhN67ANrJ4XZqWKU0ToZx4Nj37R6VKmrVWnfGVDuky9SXFPvO
APXa9zNGtKvqyoMU2NeTIF9SkXnJ1oSn3RbJS+Z2tLOvrRBMu9kB3LIyvKRuAiEv
OdkdPkdTAXA311MrWjvK2f3FW/x/LyU1NnkzbiW99+rqwaE8omADEhlCW6lGKnpo
/kMA8O2qKflCUsWvFblxjMvPKmyYK2wS49VFf3+wbKrcUVwr9orl5IMLINSnqgfQ
mVxS5w2nJIze2AAVXg==
-----END CERTIFICATE-----
