Certificate:
    Data:
        Version: 1 (0x0)
        Serial Number:
            2c:05:90:7b:09:48:bc:6b:26:aa:9c:2b:02:04:1e:4c:77:d2:e6:1a
        Signature Algorithm: NULL
        Issuer: CN = dbhost.yourdomain.com
        Validity
            Not Before: Oct  9 21:52:10 2021 GMT
            Not After : Oct  9 21:52:10 2022 GMT
        Subject: CN = dbhost.yourdomain.com
        Subject Public Key Info:
            Public Key Algorithm: rsaEncryption
                RSA Public-Key: (2048 bit)
                Modulus:
                    00:ce:f9:d7:53:54:74:02:3f:87:1c:de:57:91:22:
                    92:f5:c2:dc:d0:81:88:0e:f6:8d:87:5c:ed:72:32:
                    48:e5:c3:94:2c:da:51:a0:56:49:b1:6b:dd:e0:c1:
                    bb:a6:5d:5b:37:d0:bd:e7:1f:f3:6b:c6:93:ff:57:
                    02:0b:da:90:ab:4f:2a:76:2c:6d:50:2e:81:d0:07:
                    43:7c:ba:b3:a1:4f:bc:7b:17:ea:ec:7f:a8:69:2c:
                    b9:30:ef:ae:f1:1b:b2:29:9f:fa:45:cd:f4:91:5c:
                    93:50:c2:64:89:ef:f1:ec:de:4a:f0:86:6f:a3:7e:
                    ad:e4:28:98:3a:1a:67:1b:d6:af:21:b2:cb:82:84:
                    f7:b5:84:cd:48:73:ec:16:fb:b4:81:80:db:50:3a:
                    b5:1b:55:35:cf:ec:7f:12:4b:de:3e:d6:08:44:5c:
                    29:a5:e6:4f:80:43:6f:2a:77:41:24:89:46:46:37:
                    c2:af:4c:ee:40:fe:dc:b6:53:e2:5e:42:28:91:39:
                    cd:c7:e9:0f:2b:8d:cf:dc:94:1c:b1:3a:c2:cf:c5:
                    dc:47:b6:b1:82:c4:00:ca:cb:89:89:28:fc:ee:7a:
                    be:1a:f9:b1:93:08:df:2f:a1:87:92:2e:83:64:21:
                    d4:10:95:f3:81:98:23:48:39:ad:83:40:fd:de:74:
                    c2:97
                Exponent: 65537 (0x10001)
    Signature Algorithm: NULL
-----BEGIN CERTIFICATE-----
MIICuzCCAaMCFFb9dVAi1uzAfF8amYRNfYTLTeKZMA0GCSqGSIb3DQEBCwUAMBQx
EjAQBgNVBAMMCWxvY2FsaG9zdDAeFw0yMTEwMDkyMTUyMTBaFw0yMjEwMDkyMTUy
MTBaMCAxHjAcBgNVBAMMFWRiaG9zdC55b3VyZG9tYWluLmNvbTCCASIwDQYJKoZI
hvcNAQEBBQADggEPADCCAQoCggEBAM7511NUdAI/hxzeV5EikvXC3NCBiA72jYdc
7XIySOXDlCzaUaBWSbFr3eDBu6ZdWzfQvecf82vGk/9XAgvakKtPKnYsbVAugdAH
Q3y6s6FPvHsX6ux/qGksuTDvrvEbsimf+kXN9JFck1DCZInv8ezeSvCGb6N+reQo
mDoaZxvWryGyy4KE97WEzUhz7Bb7tIGA21A6tRtVNc/sfxJL3j7WCERcKaXmT4BD
byp3QSSJRkY3wq9M7kD+3LZT4l5CKJE5zcfpDyuNz9yUHLE6ws/F3Ee2sYLEAMrL
iYko/O56vhr5sZMI3y+hh5Iug2Qh1BCV84GYI0g5rYNA/d50wpcCAwEAATANBgkq
hkiG9w0BAQsFAAOCAQEAbJ7azo+vozz/dqs6cW6k8lSx4ws4m1JuthKz5IKhoZlv
f/u++W+uPL0LCso8m/WbbRY5t6DBIAk+pZAW02g/G1qhokOMUpSMFvXPiBcBA2Bo
I9dJuRB/naVoqeNCeMp5k0QRZaJ15JiiwyeOB5M47tTkcuiC9hoyxoC7LBoDVABv
vEtvtsnOQ9m8dG7VyqvRgV9dIMByal6FRS0yn2fqCl417s7ZTLH6bcw5Fgw3oNXr
bouJ79p+y7Y0y2GoQ+v5jRuyn979m2dCLG710JqawWPA1CUKv+GR/D7UmccJ3o40
hRE8zAB79TKhWK4OynAib747IOzTpxEWiwivmYQkYg==
-----END CERTIFICATE-----
